target datalayout = "e-m:e-p270:32:32-p271:32:32-p272:64:64-i64:64-i128:128-f80:128-n8:16:32:64-S128"
target triple = "x86_64-pc-linux-gnu"

@numTempTableSpaces = internal global i32 -1, align 4
@tempTableSpaces = internal global ptr null, align 8

; Function Attrs: nounwind uwtable
define dso_local i32 @GetTempTablespaces(ptr noundef %0, i32 noundef %1) #0 {
  %3 = alloca ptr, align 8
  %4 = alloca i32, align 4
  %5 = alloca i32, align 4
  store ptr %0, ptr %3, align 8
  store i32 %1, ptr %4, align 4
  call void @llvm.lifetime.start.p0(i64 4, ptr %5) #14
  store i32 0, ptr %5, align 4
  br label %6

6:                                                ; preds = %26, %2
  %7 = load i32, ptr %5, align 4
  %8 = load i32, ptr @numTempTableSpaces, align 4
  %9 = icmp slt i32 %7, %8
  br i1 %9, label %10, label %14

10:                                               ; preds = %6
  %11 = load i32, ptr %5, align 4
  %12 = load i32, ptr %4, align 4
  %13 = icmp slt i32 %11, %12
  br label %14

14:                                               ; preds = %10, %6
  %15 = phi i1 [ false, %6 ], [ %13, %10 ]
  br i1 %15, label %16, label %29

16:                                               ; preds = %14
  %17 = load ptr, ptr @tempTableSpaces, align 8
  %18 = load i32, ptr %5, align 4
  %19 = sext i32 %18 to i64
  %20 = getelementptr inbounds i32, ptr %17, i64 %19
  %21 = load i32, ptr %20, align 4
  %22 = load ptr, ptr %3, align 8
  %23 = load i32, ptr %5, align 4
  %24 = sext i32 %23 to i64
  %25 = getelementptr inbounds i32, ptr %22, i64 %24
  store i32 %21, ptr %25, align 4
  br label %26

26:                                               ; preds = %16
  %27 = load i32, ptr %5, align 4
  %28 = add i32 %27, 1
  store i32 %28, ptr %5, align 4
  br label %6, !llvm.loop !19

29:                                               ; preds = %14
  %30 = load i32, ptr %5, align 4
  call void @llvm.lifetime.end.p0(i64 4, ptr %5) #14
  ret i32 %30
}