; Function Attrs: nofree norecurse nosync nounwind memory(read, argmem: readwrite, inaccessiblemem: none) uwtable
define dso_local i32 @GetTempTablespaces(ptr noundef writeonly captures(none) %0, i32 noundef %1) local_unnamed_addr #18 {
  %3 = load i32, ptr @numTempTableSpaces, align 4
  %invariant.smin = tail call i32 @llvm.smin.i32(i32 %1, i32 %3)
  %4 = icmp sgt i32 %invariant.smin, 0
  br i1 %4, label %.lr.ph, label %._crit_edge

.lr.ph:                                           ; preds = %2
  %5 = load ptr, ptr @tempTableSpaces, align 8
  %wide.trip.count = zext nneg i32 %invariant.smin to i64
  br label %6

6:                                                ; preds = %.lr.ph, %6
  %indvars.iv = phi i64 [ 0, %.lr.ph ], [ %indvars.iv.next, %6 ]
  %7 = getelementptr inbounds nuw i32, ptr %5, i64 %indvars.iv
  %8 = load i32, ptr %7, align 4
  %9 = getelementptr inbounds nuw i32, ptr %0, i64 %indvars.iv
  store i32 %8, ptr %9, align 4
  %indvars.iv.next = add nuw nsw i64 %indvars.iv, 1
  %exitcond.not = icmp eq i64 %indvars.iv.next, %wide.trip.count
  br i1 %exitcond.not, label %._crit_edge, label %6, !llvm.loop !19

._crit_edge:                                      ; preds = %6, %2
  %.0.lcssa = phi i32 [ 0, %2 ], [ %invariant.smin, %6 ]
  ret i32 %.0.lcssa
}